target datalayout = "e-m:e-p270:32:32-p271:32:32-p272:64:64-i64:64-i128:128-f80:128-n8:16:32:64-S128"
target triple = "x86_64-pc-linux-gnu"

%struct.bio_st = type { ptr, ptr, ptr, i32, i32, i32, i32, i32, i32, ptr, ptr, i64, i64 }
%struct.bio_bio_st = type { ptr, i32, i64, i64, i64, ptr, i8, i8, i8, i64 }

; Function Attrs: nounwind uwtable
define internal i32 @bio_read(ptr noundef %0, ptr noundef %1, i32 noundef %2) #0 {
  %4 = alloca i32, align 4
  %5 = alloca ptr, align 8
  %6 = alloca ptr, align 8
  %7 = alloca i32, align 4
  %8 = alloca i64, align 8
  %9 = alloca i64, align 8
  %10 = alloca ptr, align 8
  %11 = alloca ptr, align 8
  %12 = alloca i32, align 4
  %13 = alloca i64, align 8
  store ptr %0, ptr %5, align 8, !tbaa !6
  store ptr %1, ptr %6, align 8, !tbaa !33
  store i32 %2, ptr %7, align 4, !tbaa !40
  call void @llvm.lifetime.start.p0(i64 8, ptr %8) #8
  %14 = load i32, ptr %7, align 4, !tbaa !40
  %15 = sext i32 %14 to i64
  store i64 %15, ptr %8, align 8, !tbaa !15
  call void @llvm.lifetime.start.p0(i64 8, ptr %9) #8
  call void @llvm.lifetime.start.p0(i64 8, ptr %10) #8
  call void @llvm.lifetime.start.p0(i64 8, ptr %11) #8
  %16 = load ptr, ptr %5, align 8, !tbaa !6
  call void @BIO_clear_retry_flags(ptr noundef %16)
  %17 = load ptr, ptr %5, align 8, !tbaa !6
  %18 = getelementptr inbounds nuw %struct.bio_st, ptr %17, i32 0, i32 3
  %19 = load i32, ptr %18, align 8, !tbaa !17
  %20 = icmp ne i32 %19, 0
  br i1 %20, label %22, label %21

21:                                               ; preds = %3
  store i32 0, ptr %4, align 4
  store i32 1, ptr %12, align 4
  br label %164

22:                                               ; preds = %3
  %23 = load ptr, ptr %5, align 8, !tbaa !6
  %24 = getelementptr inbounds nuw %struct.bio_st, ptr %23, i32 0, i32 9
  %25 = load ptr, ptr %24, align 8, !tbaa !22
  store ptr %25, ptr %10, align 8, !tbaa !23
  %26 = load ptr, ptr %10, align 8, !tbaa !23
  %27 = getelementptr inbounds nuw %struct.bio_bio_st, ptr %26, i32 0, i32 0
  %28 = load ptr, ptr %27, align 8, !tbaa !25
  %29 = getelementptr inbounds nuw %struct.bio_st, ptr %28, i32 0, i32 9
  %30 = load ptr, ptr %29, align 8, !tbaa !22
  store ptr %30, ptr %11, align 8, !tbaa !23
  %31 = load ptr, ptr %11, align 8, !tbaa !23
  %32 = getelementptr inbounds nuw %struct.bio_bio_st, ptr %31, i32 0, i32 9
  store i64 0, ptr %32, align 8, !tbaa !28
  %33 = load ptr, ptr %6, align 8, !tbaa !33
  %34 = icmp eq ptr %33, null
  br i1 %34, label %44, label %35

35:                                               ; preds = %22
  %36 = load i64, ptr %8, align 8, !tbaa !15
  %37 = icmp eq i64 %36, 0
  br i1 %37, label %44, label %38

38:                                               ; preds = %35
  %39 = load ptr, ptr %11, align 8, !tbaa !23
  %40 = getelementptr inbounds nuw %struct.bio_bio_st, ptr %39, i32 0, i32 7
  %41 = load i8, ptr %40, align 1, !tbaa !27
  %42 = sext i8 %41 to i32
  %43 = icmp ne i32 %42, 0
  br i1 %43, label %44, label %45

44:                                               ; preds = %38, %35, %22
  store i32 0, ptr %4, align 4
  store i32 1, ptr %12, align 4
  br label %164

45:                                               ; preds = %38
  %46 = load ptr, ptr %11, align 8, !tbaa !23
  %47 = getelementptr inbounds nuw %struct.bio_bio_st, ptr %46, i32 0, i32 2
  %48 = load i64, ptr %47, align 8, !tbaa !29
  %49 = icmp eq i64 %48, 0
  br i1 %49, label %50, label %74

50:                                               ; preds = %45
  %51 = load ptr, ptr %11, align 8, !tbaa !23
  %52 = getelementptr inbounds nuw %struct.bio_bio_st, ptr %51, i32 0, i32 1
  %53 = load i32, ptr %52, align 8, !tbaa !36
  %54 = icmp ne i32 %53, 0
  br i1 %54, label %55, label %56

55:                                               ; preds = %50
  store i32 0, ptr %4, align 4
  store i32 1, ptr %12, align 4
  br label %164

56:                                               ; preds = %50
  %57 = load ptr, ptr %5, align 8, !tbaa !6
  call void @BIO_set_retry_read(ptr noundef %57)
  %58 = load i64, ptr %8, align 8, !tbaa !15
  %59 = load ptr, ptr %11, align 8, !tbaa !23
  %60 = getelementptr inbounds nuw %struct.bio_bio_st, ptr %59, i32 0, i32 4
  %61 = load i64, ptr %60, align 8, !tbaa !30
  %62 = icmp ule i64 %58, %61
  br i1 %62, label %63, label %67

63:                                               ; preds = %56
  %64 = load i64, ptr %8, align 8, !tbaa !15
  %65 = load ptr, ptr %11, align 8, !tbaa !23
  %66 = getelementptr inbounds nuw %struct.bio_bio_st, ptr %65, i32 0, i32 9
  store i64 %64, ptr %66, align 8, !tbaa !28
  br label %73

67:                                               ; preds = %56
  %68 = load ptr, ptr %11, align 8, !tbaa !23
  %69 = getelementptr inbounds nuw %struct.bio_bio_st, ptr %68, i32 0, i32 4
  %70 = load i64, ptr %69, align 8, !tbaa !30
  %71 = load ptr, ptr %11, align 8, !tbaa !23
  %72 = getelementptr inbounds nuw %struct.bio_bio_st, ptr %71, i32 0, i32 9
  store i64 %70, ptr %72, align 8, !tbaa !28
  br label %73

73:                                               ; preds = %67, %63
  store i32 -1, ptr %4, align 4
  store i32 1, ptr %12, align 4
  br label %164

74:                                               ; preds = %45
  %75 = load ptr, ptr %11, align 8, !tbaa !23
  %76 = getelementptr inbounds nuw %struct.bio_bio_st, ptr %75, i32 0, i32 2
  %77 = load i64, ptr %76, align 8, !tbaa !29
  %78 = load i64, ptr %8, align 8, !tbaa !15
  %79 = icmp ult i64 %77, %78
  br i1 %79, label %80, label %84

80:                                               ; preds = %74
  %81 = load ptr, ptr %11, align 8, !tbaa !23
  %82 = getelementptr inbounds nuw %struct.bio_bio_st, ptr %81, i32 0, i32 2
  %83 = load i64, ptr %82, align 8, !tbaa !29
  store i64 %83, ptr %8, align 8, !tbaa !15
  br label %84

84:                                               ; preds = %80, %74
  %85 = load i64, ptr %8, align 8, !tbaa !15
  store i64 %85, ptr %9, align 8, !tbaa !15
  br label %86

86:                                               ; preds = %158, %84
  call void @llvm.lifetime.start.p0(i64 8, ptr %13) #8
  %87 = load ptr, ptr %11, align 8, !tbaa !23
  %88 = getelementptr inbounds nuw %struct.bio_bio_st, ptr %87, i32 0, i32 3
  %89 = load i64, ptr %88, align 8, !tbaa !31
  %90 = load i64, ptr %9, align 8, !tbaa !15
  %91 = add i64 %89, %90
  %92 = load ptr, ptr %11, align 8, !tbaa !23
  %93 = getelementptr inbounds nuw %struct.bio_bio_st, ptr %92, i32 0, i32 4
  %94 = load i64, ptr %93, align 8, !tbaa !30
  %95 = icmp ule i64 %91, %94
  br i1 %95, label %96, label %98

96:                                               ; preds = %86
  %97 = load i64, ptr %9, align 8, !tbaa !15
  store i64 %97, ptr %13, align 8, !tbaa !15
  br label %106

98:                                               ; preds = %86
  %99 = load ptr, ptr %11, align 8, !tbaa !23
  %100 = getelementptr inbounds nuw %struct.bio_bio_st, ptr %99, i32 0, i32 4
  %101 = load i64, ptr %100, align 8, !tbaa !30
  %102 = load ptr, ptr %11, align 8, !tbaa !23
  %103 = getelementptr inbounds nuw %struct.bio_bio_st, ptr %102, i32 0, i32 3
  %104 = load i64, ptr %103, align 8, !tbaa !31
  %105 = sub i64 %101, %104
  store i64 %105, ptr %13, align 8, !tbaa !15
  br label %106

106:                                              ; preds = %98, %96
  %107 = load ptr, ptr %6, align 8, !tbaa !33
  %108 = load ptr, ptr %11, align 8, !tbaa !23
  %109 = getelementptr inbounds nuw %struct.bio_bio_st, ptr %108, i32 0, i32 5
  %110 = load ptr, ptr %109, align 8, !tbaa !32
  %111 = load ptr, ptr %11, align 8, !tbaa !23
  %112 = getelementptr inbounds nuw %struct.bio_bio_st, ptr %111, i32 0, i32 3
  %113 = load i64, ptr %112, align 8, !tbaa !31
  %114 = getelementptr inbounds nuw i8, ptr %110, i64 %113
  %115 = load i64, ptr %13, align 8, !tbaa !15
  call void @llvm.memcpy.p0.p0.i64(ptr align 1 %107, ptr align 1 %114, i64 %115, i1 false)
  %116 = load i64, ptr %13, align 8, !tbaa !15
  %117 = load ptr, ptr %11, align 8, !tbaa !23
  %118 = getelementptr inbounds nuw %struct.bio_bio_st, ptr %117, i32 0, i32 2
  %119 = load i64, ptr %118, align 8, !tbaa !29
  %120 = sub i64 %119, %116
  store i64 %120, ptr %118, align 8, !tbaa !29
  %121 = load ptr, ptr %11, align 8, !tbaa !23
  %122 = getelementptr inbounds nuw %struct.bio_bio_st, ptr %121, i32 0, i32 2
  %123 = load i64, ptr %122, align 8, !tbaa !29
  %124 = icmp ne i64 %123, 0
  br i1 %124, label %131, label %125

125:                                              ; preds = %106
  %126 = load ptr, ptr %11, align 8, !tbaa !23
  %127 = getelementptr inbounds nuw %struct.bio_bio_st, ptr %126, i32 0, i32 8
  %128 = load i8, ptr %127, align 2, !tbaa !34
  %129 = sext i8 %128 to i32
  %130 = icmp ne i32 %129, 0
  br i1 %130, label %131, label %151

131:                                              ; preds = %125, %106
  %132 = load i64, ptr %13, align 8, !tbaa !15
  %133 = load ptr, ptr %11, align 8, !tbaa !23
  %134 = getelementptr inbounds nuw %struct.bio_bio_st, ptr %133, i32 0, i32 3
  %135 = load i64, ptr %134, align 8, !tbaa !31
  %136 = add i64 %135, %132
  store i64 %136, ptr %134, align 8, !tbaa !31
  %137 = load ptr, ptr %11, align 8, !tbaa !23
  %138 = getelementptr inbounds nuw %struct.bio_bio_st, ptr %137, i32 0, i32 3
  %139 = load i64, ptr %138, align 8, !tbaa !31
  %140 = load ptr, ptr %11, align 8, !tbaa !23
  %141 = getelementptr inbounds nuw %struct.bio_bio_st, ptr %140, i32 0, i32 4
  %142 = load i64, ptr %141, align 8, !tbaa !30
  %143 = icmp eq i64 %139, %142
  br i1 %143, label %144, label %147

144:                                              ; preds = %131
  %145 = load ptr, ptr %11, align 8, !tbaa !23
  %146 = getelementptr inbounds nuw %struct.bio_bio_st, ptr %145, i32 0, i32 3
  store i64 0, ptr %146, align 8, !tbaa !31
  br label %147

147:                                              ; preds = %144, %131
  %148 = load i64, ptr %13, align 8, !tbaa !15
  %149 = load ptr, ptr %6, align 8, !tbaa !33
  %150 = getelementptr inbounds nuw i8, ptr %149, i64 %148
  store ptr %150, ptr %6, align 8, !tbaa !33
  br label %154

151:                                              ; preds = %125
  %152 = load ptr, ptr %11, align 8, !tbaa !23
  %153 = getelementptr inbounds nuw %struct.bio_bio_st, ptr %152, i32 0, i32 3
  store i64 0, ptr %153, align 8, !tbaa !31
  br label %154

154:                                              ; preds = %151, %147
  %155 = load i64, ptr %13, align 8, !tbaa !15
  %156 = load i64, ptr %9, align 8, !tbaa !15
  %157 = sub i64 %156, %155
  store i64 %157, ptr %9, align 8, !tbaa !15
  call void @llvm.lifetime.end.p0(i64 8, ptr %13) #8
  br label %158

158:                                              ; preds = %154
  %159 = load i64, ptr %9, align 8, !tbaa !15
  %160 = icmp ne i64 %159, 0
  br i1 %160, label %86, label %161, !llvm.loop !44

161:                                              ; preds = %158
  %162 = load i64, ptr %8, align 8, !tbaa !15
  %163 = trunc i64 %162 to i32
  store i32 %163, ptr %4, align 4
  store i32 1, ptr %12, align 4
  br label %164

164:                                              ; preds = %161, %73, %55, %44, %21
  call void @llvm.lifetime.end.p0(i64 8, ptr %11) #8
  call void @llvm.lifetime.end.p0(i64 8, ptr %10) #8
  call void @llvm.lifetime.end.p0(i64 8, ptr %9) #8
  call void @llvm.lifetime.end.p0(i64 8, ptr %8) #8
  %165 = load i32, ptr %4, align 4
  ret i32 %165
}