; Function Attrs: nounwind uwtable
define internal i32 @bio_read(ptr noundef %0, ptr noundef writeonly captures(address_is_null) %1, i32 noundef %2) #0 {
  %4 = sext i32 %2 to i64
  tail call void @BIO_clear_retry_flags(ptr noundef %0) #12
  %5 = getelementptr inbounds nuw i8, ptr %0, i64 24
  %6 = load i32, ptr %5, align 8, !tbaa !10
  %.not = icmp eq i32 %6, 0
  br i1 %.not, label %57, label %7

7:                                                ; preds = %3
  %8 = getelementptr inbounds nuw i8, ptr %0, i64 48
  %9 = load ptr, ptr %8, align 8, !tbaa !17
  %10 = load ptr, ptr %9, align 8, !tbaa !18
  %11 = getelementptr inbounds nuw i8, ptr %10, i64 48
  %12 = load ptr, ptr %11, align 8, !tbaa !17
  %13 = getelementptr inbounds nuw i8, ptr %12, i64 56
  store i64 0, ptr %13, align 8, !tbaa !21
  %14 = icmp eq ptr %1, null
  %15 = icmp eq i32 %2, 0
  %or.cond = or i1 %14, %15
  br i1 %or.cond, label %57, label %16

16:                                               ; preds = %7
  %17 = getelementptr inbounds nuw i8, ptr %12, i64 49
  %18 = load i8, ptr %17, align 1, !tbaa !20
  %.not59 = icmp eq i8 %18, 0
  br i1 %.not59, label %19, label %57

19:                                               ; preds = %16
  %20 = getelementptr inbounds nuw i8, ptr %12, i64 16
  %21 = load i64, ptr %20, align 8, !tbaa !22
  %22 = icmp eq i64 %21, 0
  br i1 %22, label %23, label %29

23:                                               ; preds = %19
  %24 = getelementptr inbounds nuw i8, ptr %12, i64 8
  %25 = load i32, ptr %24, align 8, !tbaa !29
  %.not64 = icmp eq i32 %25, 0
  br i1 %.not64, label %26, label %57

26:                                               ; preds = %23
  tail call void @BIO_set_retry_read(ptr noundef nonnull %0) #12
  %27 = getelementptr inbounds nuw i8, ptr %12, i64 32
  %28 = load i64, ptr %27, align 8, !tbaa !23
  %. = tail call i64 @llvm.umin.i64(i64 %28, i64 %4)
  store i64 %., ptr %13, align 8, !tbaa !21
  br label %57

29:                                               ; preds = %19
  %spec.select = tail call i64 @llvm.umin.i64(i64 %21, i64 %4)
  %30 = getelementptr inbounds nuw i8, ptr %12, i64 24
  %31 = getelementptr inbounds nuw i8, ptr %12, i64 32
  %32 = getelementptr inbounds nuw i8, ptr %12, i64 40
  %33 = getelementptr inbounds nuw i8, ptr %12, i64 50
  %.pre = load i64, ptr %30, align 8, !tbaa !24
  br label %34

34:                                               ; preds = %52, %29
  %35 = phi i64 [ %.pre, %29 ], [ %53, %52 ]
  %.051 = phi i64 [ %spec.select, %29 ], [ %54, %52 ]
  %.050 = phi ptr [ %1, %29 ], [ %.1, %52 ]
  %36 = add i64 %35, %.051
  %37 = load i64, ptr %31, align 8, !tbaa !23
  %.not60 = icmp ugt i64 %36, %37
  %38 = sub i64 %37, %35
  %.0 = select i1 %.not60, i64 %38, i64 %.051
  %39 = load ptr, ptr %32, align 8, !tbaa !25
  %40 = getelementptr inbounds nuw i8, ptr %39, i64 %35
  tail call void @llvm.memcpy.p0.p0.i64(ptr align 1 %.050, ptr align 1 %40, i64 %.0, i1 false)
  %41 = load i64, ptr %20, align 8, !tbaa !22
  %42 = sub i64 %41, %.0
  store i64 %42, ptr %20, align 8, !tbaa !22
  %.not61 = icmp eq i64 %41, %.0
  br i1 %.not61, label %43, label %45

43:                                               ; preds = %34
  %44 = load i8, ptr %33, align 2, !tbaa !27
  %.not62 = icmp eq i8 %44, 0
  br i1 %.not62, label %51, label %45

45:                                               ; preds = %43, %34
  %46 = load i64, ptr %30, align 8, !tbaa !24
  %47 = add i64 %46, %.0
  %48 = load i64, ptr %31, align 8, !tbaa !23
  %49 = icmp eq i64 %47, %48
  %spec.store.select = select i1 %49, i64 0, i64 %47
  store i64 %spec.store.select, ptr %30, align 8
  %50 = getelementptr inbounds nuw i8, ptr %.050, i64 %.0
  br label %52

51:                                               ; preds = %43
  store i64 0, ptr %30, align 8, !tbaa !24
  br label %52

52:                                               ; preds = %51, %45
  %53 = phi i64 [ %spec.store.select, %45 ], [ 0, %51 ]
  %.1 = phi ptr [ %50, %45 ], [ %.050, %51 ]
  %54 = sub i64 %.051, %.0
  %.not63 = icmp eq i64 %54, 0
  br i1 %.not63, label %55, label %34, !llvm.loop !35

55:                                               ; preds = %52
  %56 = trunc i64 %spec.select to i32
  br label %57

57:                                               ; preds = %23, %7, %16, %3, %55, %26
  %.049 = phi i32 [ -1, %26 ], [ %56, %55 ], [ 0, %3 ], [ 0, %16 ], [ 0, %7 ], [ 0, %23 ]
  ret i32 %.049
}